; ModuleID = '15/1766.c'
source_filename = "15/1766.c"
target datalayout = "e-m:e-p270:32:32-p271:32:32-p272:64:64-i64:64-f80:128-n8:16:32:64-S128"
target triple = "x86_64-pc-linux-gnu"

@.str = private unnamed_addr constant [3 x i8] c"%d\00", align 1

; Function Attrs: noinline nounwind uwtable
define dso_local i32 @main() #0 {
  %1 = alloca i32, align 4
  %2 = alloca i32, align 4
  %3 = alloca i32, align 4
  %4 = alloca i8*, align 8
  %5 = alloca i64, align 8
  %6 = alloca i64, align 8
  %7 = alloca i32, align 4
  %8 = alloca i32, align 4
  %9 = alloca i32, align 4
  %10 = alloca i32, align 4
  %11 = alloca i32, align 4
  %12 = alloca i32, align 4
  %13 = alloca i32, align 4
  %14 = alloca i32, align 4
  %15 = alloca i32, align 4
  store i32 0, i32* %1, align 4
  store i32 100, i32* %2, align 4
  store i32 100, i32* %3, align 4
  %16 = load i32, i32* %2, align 4
  %17 = zext i32 %16 to i64
  %18 = load i32, i32* %3, align 4
  %19 = zext i32 %18 to i64
  %20 = call i8* @llvm.stacksave()
  store i8* %20, i8** %4, align 8
  %21 = mul nuw i64 %17, %19
  %22 = alloca i32, i64 %21, align 16
  store i64 %17, i64* %5, align 8
  store i64 %19, i64* %6, align 8
  %23 = call i32 (i8*, ...) @__isoc99_scanf(i8* getelementptr inbounds ([3 x i8], [3 x i8]* @.str, i64 0, i64 0), i32* %7)
  store i32 0, i32* %10, align 4
  br label %24

24:                                               ; preds = %46, %0
  %25 = load i32, i32* %10, align 4
  %26 = load i32, i32* %7, align 4
  %27 = icmp slt i32 %25, %26
  br i1 %27, label %28, label %49

28:                                               ; preds = %24
  store i32 0, i32* %13, align 4
  br label %29

29:                                               ; preds = %42, %28
  %30 = load i32, i32* %13, align 4
  %31 = load i32, i32* %7, align 4
  %32 = icmp slt i32 %30, %31
  br i1 %32, label %33, label %45

33:                                               ; preds = %29
  %34 = load i32, i32* %10, align 4
  %35 = sext i32 %34 to i64
  %36 = mul nsw i64 %35, %19
  %37 = getelementptr inbounds i32, i32* %22, i64 %36
  %38 = load i32, i32* %13, align 4
  %39 = sext i32 %38 to i64
  %40 = getelementptr inbounds i32, i32* %37, i64 %39
  %41 = call i32 (i8*, ...) @__isoc99_scanf(i8* getelementptr inbounds ([3 x i8], [3 x i8]* @.str, i64 0, i64 0), i32* %40)
  br label %42

42:                                               ; preds = %33
  %43 = load i32, i32* %13, align 4
  %44 = add nsw i32 %43, 1
  store i32 %44, i32* %13, align 4
  br label %29

45:                                               ; preds = %29
  br label %46

46:                                               ; preds = %45
  %47 = load i32, i32* %10, align 4
  %48 = add nsw i32 %47, 1
  store i32 %48, i32* %10, align 4
  br label %24

49:                                               ; preds = %24
  store i32 0, i32* %14, align 4
  store i32 0, i32* %10, align 4
  br label %50

50:                                               ; preds = %87, %49
  %51 = load i32, i32* %14, align 4
  %52 = icmp eq i32 %51, 0
  br i1 %52, label %53, label %57

53:                                               ; preds = %50
  %54 = load i32, i32* %10, align 4
  %55 = load i32, i32* %7, align 4
  %56 = icmp slt i32 %54, %55
  br label %57

57:                                               ; preds = %53, %50
  %58 = phi i1 [ false, %50 ], [ %56, %53 ]
  br i1 %58, label %59, label %90

59:                                               ; preds = %57
  store i32 0, i32* %13, align 4
  br label %60

60:                                               ; preds = %83, %59
  %61 = load i32, i32* %14, align 4
  %62 = icmp eq i32 %61, 0
  br i1 %62, label %63, label %67

63:                                               ; preds = %60
  %64 = load i32, i32* %13, align 4
  %65 = load i32, i32* %7, align 4
  %66 = icmp slt i32 %64, %65
  br label %67

67:                                               ; preds = %63, %60
  %68 = phi i1 [ false, %60 ], [ %66, %63 ]
  br i1 %68, label %69, label %86

69:                                               ; preds = %67
  %70 = load i32, i32* %10, align 4
  %71 = sext i32 %70 to i64
  %72 = mul nsw i64 %71, %19
  %73 = getelementptr inbounds i32, i32* %22, i64 %72
  %74 = load i32, i32* %13, align 4
  %75 = sext i32 %74 to i64
  %76 = getelementptr inbounds i32, i32* %73, i64 %75
  %77 = load i32, i32* %76, align 4
  %78 = icmp eq i32 %77, 0
  br i1 %78, label %79, label %82

79:                                               ; preds = %69
  store i32 1, i32* %14, align 4
  %80 = load i32, i32* %10, align 4
  store i32 %80, i32* %8, align 4
  %81 = load i32, i32* %13, align 4
  store i32 %81, i32* %11, align 4
  br label %82

82:                                               ; preds = %79, %69
  br label %83

83:                                               ; preds = %82
  %84 = load i32, i32* %13, align 4
  %85 = add nsw i32 %84, 1
  store i32 %85, i32* %13, align 4
  br label %60

86:                                               ; preds = %67
  br label %87

87:                                               ; preds = %86
  %88 = load i32, i32* %10, align 4
  %89 = add nsw i32 %88, 1
  store i32 %89, i32* %10, align 4
  br label %50

90:                                               ; preds = %57
  %91 = load i32, i32* %7, align 4
  %92 = sub nsw i32 %91, 1
  store i32 %92, i32* %10, align 4
  br label %93

93:                                               ; preds = %130, %90
  %94 = load i32, i32* %14, align 4
  %95 = icmp eq i32 %94, 1
  br i1 %95, label %96, label %99

96:                                               ; preds = %93
  %97 = load i32, i32* %10, align 4
  %98 = icmp sgt i32 %97, 0
  br label %99

99:                                               ; preds = %96, %93
  %100 = phi i1 [ false, %93 ], [ %98, %96 ]
  br i1 %100, label %101, label %133

101:                                              ; preds = %99
  %102 = load i32, i32* %7, align 4
  %103 = sub nsw i32 %102, 1
  store i32 %103, i32* %13, align 4
  br label %104

104:                                              ; preds = %126, %101
  %105 = load i32, i32* %14, align 4
  %106 = icmp eq i32 %105, 1
  br i1 %106, label %107, label %110

107:                                              ; preds = %104
  %108 = load i32, i32* %13, align 4
  %109 = icmp sgt i32 %108, 0
  br label %110

110:                                              ; preds = %107, %104
  %111 = phi i1 [ false, %104 ], [ %109, %107 ]
  br i1 %111, label %112, label %129

112:                                              ; preds = %110
  %113 = load i32, i32* %10, align 4
  %114 = sext i32 %113 to i64
  %115 = mul nsw i64 %114, %19
  %116 = getelementptr inbounds i32, i32* %22, i64 %115
  %117 = load i32, i32* %13, align 4
  %118 = sext i32 %117 to i64
  %119 = getelementptr inbounds i32, i32* %116, i64 %118
  %120 = load i32, i32* %119, align 4
  %121 = icmp eq i32 %120, 0
  br i1 %121, label %122, label %125

122:                                              ; preds = %112
  %123 = load i32, i32* %10, align 4
  store i32 %123, i32* %9, align 4
  %124 = load i32, i32* %13, align 4
  store i32 %124, i32* %12, align 4
  store i32 0, i32* %14, align 4
  br label %125

125:                                              ; preds = %122, %112
  br label %126

126:                                              ; preds = %125
  %127 = load i32, i32* %13, align 4
  %128 = add nsw i32 %127, -1
  store i32 %128, i32* %13, align 4
  br label %104

129:                                              ; preds = %110
  br label %130

130:                                              ; preds = %129
  %131 = load i32, i32* %10, align 4
  %132 = add nsw i32 %131, -1
  store i32 %132, i32* %10, align 4
  br label %93

133:                                              ; preds = %99
  %134 = load i32, i32* %9, align 4
  %135 = load i32, i32* %8, align 4
  %136 = sub nsw i32 %134, %135
  %137 = sub nsw i32 %136, 1
  %138 = load i32, i32* %12, align 4
  %139 = load i32, i32* %11, align 4
  %140 = sub nsw i32 %138, %139
  %141 = sub nsw i32 %140, 1
  %142 = mul nsw i32 %137, %141
  store i32 %142, i32* %15, align 4
  %143 = load i32, i32* %15, align 4
  %144 = call i32 (i8*, ...) @printf(i8* getelementptr inbounds ([3 x i8], [3 x i8]* @.str, i64 0, i64 0), i32 %143)
  store i32 0, i32* %1, align 4
  %145 = load i8*, i8** %4, align 8
  call void @llvm.stackrestore(i8* %145)
  %146 = load i32, i32* %1, align 4
  ret i32 %146
}

; Function Attrs: nounwind
declare i8* @llvm.stacksave() #1

declare dso_local i32 @__isoc99_scanf(i8*, ...) #2

declare dso_local i32 @printf(i8*, ...) #2

; Function Attrs: nounwind
declare void @llvm.stackrestore(i8*) #1


!llvm.module.flags = !{!0}
!llvm.ident = !{!1}

!0 = !{i32 1, !"wchar_size", i32 4}
!1 = !{!"clang version 10.0.0-4ubuntu1 "}
